target datalayout = "e-m:e-p270:32:32-p271:32:32-p272:64:64-i64:64-i128:128-f80:128-n8:16:32:64-S128"
target triple = "x86_64-pc-linux-gnu"

%struct.jpeg_compress_struct = type { ptr, ptr, ptr, ptr, i32, i32, ptr, i32, i32, i32, i32, double, i32, i32, i32, ptr, [4 x ptr], [4 x ptr], [4 x ptr], [16 x i8], [16 x i8], [16 x i8], i32, ptr, i32, i32, i32, i32, i32, i32, i32, i32, i32, i8, i8, i8, i16, i16, i32, i32, i32, i32, i32, i32, i32, [4 x ptr], i32, i32, i32, [10 x i32], i32, i32, i32, i32, ptr, ptr, ptr, ptr, ptr, ptr, ptr, ptr, ptr, ptr, i32 }
%struct.jpeg_error_mgr = type { ptr, ptr, ptr, ptr, ptr, i32, %union.anon, i32, i64, ptr, i32, ptr, i32, i32 }
%union.anon = type { [8 x i32], [48 x i8] }
%struct.ppm_source_struct = type { %struct.cjpeg_source_struct, ptr, ptr, i64, ptr, i32 }
%struct.cjpeg_source_struct = type { ptr, ptr, ptr, ptr, ptr, ptr, ptr, i32, i32 }

; Function Attrs: alwaysinline nounwind uwtable
define internal void @rgb_to_cmyk(i32 noundef %0, i8 noundef zeroext %1, i8 noundef zeroext %2, i8 noundef zeroext %3, ptr noundef %4, ptr noundef %5, ptr noundef %6, ptr noundef %7) #4 {
  %9 = alloca i32, align 4
  %10 = alloca i8, align 1
  %11 = alloca i8, align 1
  %12 = alloca i8, align 1
  %13 = alloca ptr, align 8
  %14 = alloca ptr, align 8
  %15 = alloca ptr, align 8
  %16 = alloca ptr, align 8
  %17 = alloca double, align 8
  %18 = alloca double, align 8
  %19 = alloca double, align 8
  %20 = alloca double, align 8
  store i32 %0, ptr %9, align 4, !tbaa !49
  store i8 %1, ptr %10, align 1, !tbaa !32
  store i8 %2, ptr %11, align 1, !tbaa !32
  store i8 %3, ptr %12, align 1, !tbaa !32
  store ptr %4, ptr %13, align 8, !tbaa !73
  store ptr %5, ptr %14, align 8, !tbaa !73
  store ptr %6, ptr %15, align 8, !tbaa !73
  store ptr %7, ptr %16, align 8, !tbaa !73
  call void @llvm.lifetime.start.p0(i64 8, ptr %17) #6
  %21 = load i8, ptr %10, align 1, !tbaa !32
  %22 = uitofp i8 %21 to double
  %23 = load i32, ptr %9, align 4, !tbaa !49
  %24 = sitofp i32 %23 to double
  %25 = fdiv double %22, %24
  %26 = fsub double 1.000000e+00, %25
  store double %26, ptr %17, align 8, !tbaa !106
  call void @llvm.lifetime.start.p0(i64 8, ptr %18) #6
  %27 = load i8, ptr %11, align 1, !tbaa !32
  %28 = uitofp i8 %27 to double
  %29 = load i32, ptr %9, align 4, !tbaa !49
  %30 = sitofp i32 %29 to double
  %31 = fdiv double %28, %30
  %32 = fsub double 1.000000e+00, %31
  store double %32, ptr %18, align 8, !tbaa !106
  call void @llvm.lifetime.start.p0(i64 8, ptr %19) #6
  %33 = load i8, ptr %12, align 1, !tbaa !32
  %34 = uitofp i8 %33 to double
  %35 = load i32, ptr %9, align 4, !tbaa !49
  %36 = sitofp i32 %35 to double
  %37 = fdiv double %34, %36
  %38 = fsub double 1.000000e+00, %37
  store double %38, ptr %19, align 8, !tbaa !106
  call void @llvm.lifetime.start.p0(i64 8, ptr %20) #6
  %39 = load double, ptr %17, align 8, !tbaa !106
  %40 = load double, ptr %18, align 8, !tbaa !106
  %41 = fcmp olt double %39, %40
  br i1 %41, label %42, label %44

42:                                               ; preds = %8
  %43 = load double, ptr %17, align 8, !tbaa !106
  br label %46

44:                                               ; preds = %8
  %45 = load double, ptr %18, align 8, !tbaa !106
  br label %46

46:                                               ; preds = %44, %42
  %47 = phi double [ %43, %42 ], [ %45, %44 ]
  %48 = load double, ptr %19, align 8, !tbaa !106
  %49 = fcmp olt double %47, %48
  br i1 %49, label %50, label %60

50:                                               ; preds = %46
  %51 = load double, ptr %17, align 8, !tbaa !106
  %52 = load double, ptr %18, align 8, !tbaa !106
  %53 = fcmp olt double %51, %52
  br i1 %53, label %54, label %56

54:                                               ; preds = %50
  %55 = load double, ptr %17, align 8, !tbaa !106
  br label %58

56:                                               ; preds = %50
  %57 = load double, ptr %18, align 8, !tbaa !106
  br label %58

58:                                               ; preds = %56, %54
  %59 = phi double [ %55, %54 ], [ %57, %56 ]
  br label %62

60:                                               ; preds = %46
  %61 = load double, ptr %19, align 8, !tbaa !106
  br label %62

62:                                               ; preds = %60, %58
  %63 = phi double [ %59, %58 ], [ %61, %60 ]
  store double %63, ptr %20, align 8, !tbaa !106
  %64 = load double, ptr %20, align 8, !tbaa !106
  %65 = fcmp oeq double %64, 1.000000e+00
  br i1 %65, label %66, label %67

66:                                               ; preds = %62
  store double 0.000000e+00, ptr %19, align 8, !tbaa !106
  store double 0.000000e+00, ptr %18, align 8, !tbaa !106
  store double 0.000000e+00, ptr %17, align 8, !tbaa !106
  br label %86

67:                                               ; preds = %62
  %68 = load double, ptr %17, align 8, !tbaa !106
  %69 = load double, ptr %20, align 8, !tbaa !106
  %70 = fsub double %68, %69
  %71 = load double, ptr %20, align 8, !tbaa !106
  %72 = fsub double 1.000000e+00, %71
  %73 = fdiv double %70, %72
  store double %73, ptr %17, align 8, !tbaa !106
  %74 = load double, ptr %18, align 8, !tbaa !106
  %75 = load double, ptr %20, align 8, !tbaa !106
  %76 = fsub double %74, %75
  %77 = load double, ptr %20, align 8, !tbaa !106
  %78 = fsub double 1.000000e+00, %77
  %79 = fdiv double %76, %78
  store double %79, ptr %18, align 8, !tbaa !106
  %80 = load double, ptr %19, align 8, !tbaa !106
  %81 = load double, ptr %20, align 8, !tbaa !106
  %82 = fsub double %80, %81
  %83 = load double, ptr %20, align 8, !tbaa !106
  %84 = fsub double 1.000000e+00, %83
  %85 = fdiv double %82, %84
  store double %85, ptr %19, align 8, !tbaa !106
  br label %86

86:                                               ; preds = %67, %66
  %87 = load i32, ptr %9, align 4, !tbaa !49
  %88 = sitofp i32 %87 to double
  %89 = load double, ptr %17, align 8, !tbaa !106
  %90 = load i32, ptr %9, align 4, !tbaa !49
  %91 = sitofp i32 %90 to double
  %92 = fneg double %89
  %93 = call double @llvm.fmuladd.f64(double %92, double %91, double %88)
  %94 = fadd double %93, 5.000000e-01
  %95 = fptoui double %94 to i8
  %96 = load ptr, ptr %13, align 8, !tbaa !73
  store i8 %95, ptr %96, align 1, !tbaa !32
  %97 = load i32, ptr %9, align 4, !tbaa !49
  %98 = sitofp i32 %97 to double
  %99 = load double, ptr %18, align 8, !tbaa !106
  %100 = load i32, ptr %9, align 4, !tbaa !49
  %101 = sitofp i32 %100 to double
  %102 = fneg double %99
  %103 = call double @llvm.fmuladd.f64(double %102, double %101, double %98)
  %104 = fadd double %103, 5.000000e-01
  %105 = fptoui double %104 to i8
  %106 = load ptr, ptr %14, align 8, !tbaa !73
  store i8 %105, ptr %106, align 1, !tbaa !32
  %107 = load i32, ptr %9, align 4, !tbaa !49
  %108 = sitofp i32 %107 to double
  %109 = load double, ptr %19, align 8, !tbaa !106
  %110 = load i32, ptr %9, align 4, !tbaa !49
  %111 = sitofp i32 %110 to double
  %112 = fneg double %109
  %113 = call double @llvm.fmuladd.f64(double %112, double %111, double %108)
  %114 = fadd double %113, 5.000000e-01
  %115 = fptoui double %114 to i8
  %116 = load ptr, ptr %15, align 8, !tbaa !73
  store i8 %115, ptr %116, align 1, !tbaa !32
  %117 = load i32, ptr %9, align 4, !tbaa !49
  %118 = sitofp i32 %117 to double
  %119 = load double, ptr %20, align 8, !tbaa !106
  %120 = load i32, ptr %9, align 4, !tbaa !49
  %121 = sitofp i32 %120 to double
  %122 = fneg double %119
  %123 = call double @llvm.fmuladd.f64(double %122, double %121, double %118)
  %124 = fadd double %123, 5.000000e-01
  %125 = fptoui double %124 to i8
  %126 = load ptr, ptr %16, align 8, !tbaa !73
  store i8 %125, ptr %126, align 1, !tbaa !32
  call void @llvm.lifetime.end.p0(i64 8, ptr %20) #6
  call void @llvm.lifetime.end.p0(i64 8, ptr %19) #6
  call void @llvm.lifetime.end.p0(i64 8, ptr %18) #6
  call void @llvm.lifetime.end.p0(i64 8, ptr %17) #6
  ret void
}

; Function Attrs: nounwind uwtable
define internal i32 @get_gray_cmyk_row(ptr noundef %0, ptr noundef %1) #0 {
  %3 = alloca ptr, align 8
  %4 = alloca ptr, align 8
  %5 = alloca ptr, align 8
  %6 = alloca ptr, align 8
  %7 = alloca ptr, align 8
  %8 = alloca ptr, align 8
  %9 = alloca i32, align 4
  %10 = alloca i32, align 4
  %11 = alloca i8, align 1
  %12 = alloca i8, align 1
  store ptr %0, ptr %3, align 8, !tbaa !4
  store ptr %1, ptr %4, align 8, !tbaa !46
  call void @llvm.lifetime.start.p0(i64 8, ptr %5) #6
  %13 = load ptr, ptr %4, align 8, !tbaa !46
  store ptr %13, ptr %5, align 8, !tbaa !37
  call void @llvm.lifetime.start.p0(i64 8, ptr %6) #6
  call void @llvm.lifetime.start.p0(i64 8, ptr %7) #6
  call void @llvm.lifetime.start.p0(i64 8, ptr %8) #6
  %14 = load ptr, ptr %5, align 8, !tbaa !37
  %15 = getelementptr inbounds nuw %struct.ppm_source_struct, ptr %14, i32 0, i32 4
  %16 = load ptr, ptr %15, align 8, !tbaa !66
  store ptr %16, ptr %8, align 8, !tbaa !73
  call void @llvm.lifetime.start.p0(i64 4, ptr %9) #6
  call void @llvm.lifetime.start.p0(i64 4, ptr %10) #6
  %17 = load ptr, ptr %5, align 8, !tbaa !37
  %18 = getelementptr inbounds nuw %struct.ppm_source_struct, ptr %17, i32 0, i32 5
  %19 = load i32, ptr %18, align 8, !tbaa !53
  store i32 %19, ptr %10, align 4, !tbaa !49
  %20 = load ptr, ptr %5, align 8, !tbaa !37
  %21 = getelementptr inbounds nuw %struct.ppm_source_struct, ptr %20, i32 0, i32 1
  %22 = load ptr, ptr %21, align 8, !tbaa !61
  %23 = load ptr, ptr %5, align 8, !tbaa !37
  %24 = getelementptr inbounds nuw %struct.ppm_source_struct, ptr %23, i32 0, i32 3
  %25 = load i64, ptr %24, align 8, !tbaa !60
  %26 = load ptr, ptr %5, align 8, !tbaa !37
  %27 = getelementptr inbounds nuw %struct.ppm_source_struct, ptr %26, i32 0, i32 0
  %28 = getelementptr inbounds nuw %struct.cjpeg_source_struct, ptr %27, i32 0, i32 3
  %29 = load ptr, ptr %28, align 8, !tbaa !48
  %30 = call i64 @fread(ptr noundef %22, i64 noundef 1, i64 noundef %25, ptr noundef %29)
  %31 = load ptr, ptr %5, align 8, !tbaa !37
  %32 = getelementptr inbounds nuw %struct.ppm_source_struct, ptr %31, i32 0, i32 3
  %33 = load i64, ptr %32, align 8, !tbaa !60
  %34 = icmp eq i64 %30, %33
  br i1 %34, label %46, label %35

35:                                               ; preds = %2
  %36 = load ptr, ptr %3, align 8, !tbaa !4
  %37 = getelementptr inbounds nuw %struct.jpeg_compress_struct, ptr %36, i32 0, i32 0
  %38 = load ptr, ptr %37, align 8, !tbaa !27
  %39 = getelementptr inbounds nuw %struct.jpeg_error_mgr, ptr %38, i32 0, i32 5
  store i32 43, ptr %39, align 8, !tbaa !28
  %40 = load ptr, ptr %3, align 8, !tbaa !4
  %41 = getelementptr inbounds nuw %struct.jpeg_compress_struct, ptr %40, i32 0, i32 0
  %42 = load ptr, ptr %41, align 8, !tbaa !27
  %43 = getelementptr inbounds nuw %struct.jpeg_error_mgr, ptr %42, i32 0, i32 0
  %44 = load ptr, ptr %43, align 8, !tbaa !33
  %45 = load ptr, ptr %3, align 8, !tbaa !4
  call void %44(ptr noundef %45)
  br label %46

46:                                               ; preds = %35, %2
  %47 = load ptr, ptr %5, align 8, !tbaa !37
  %48 = getelementptr inbounds nuw %struct.ppm_source_struct, ptr %47, i32 0, i32 0
  %49 = getelementptr inbounds nuw %struct.cjpeg_source_struct, ptr %48, i32 0, i32 4
  %50 = load ptr, ptr %49, align 8, !tbaa !63
  %51 = getelementptr inbounds ptr, ptr %50, i64 0
  %52 = load ptr, ptr %51, align 8, !tbaa !73
  store ptr %52, ptr %6, align 8, !tbaa !73
  %53 = load ptr, ptr %5, align 8, !tbaa !37
  %54 = getelementptr inbounds nuw %struct.ppm_source_struct, ptr %53, i32 0, i32 1
  %55 = load ptr, ptr %54, align 8, !tbaa !61
  store ptr %55, ptr %7, align 8, !tbaa !73
  %56 = load i32, ptr %10, align 4, !tbaa !49
  %57 = load ptr, ptr %3, align 8, !tbaa !4
  %58 = getelementptr inbounds nuw %struct.jpeg_compress_struct, ptr %57, i32 0, i32 12
  %59 = load i32, ptr %58, align 8, !tbaa !9
  %60 = shl i32 1, %59
  %61 = sub i32 %60, 1
  %62 = icmp eq i32 %56, %61
  br i1 %62, label %63, label %91

63:                                               ; preds = %46
  %64 = load ptr, ptr %3, align 8, !tbaa !4
  %65 = getelementptr inbounds nuw %struct.jpeg_compress_struct, ptr %64, i32 0, i32 7
  %66 = load i32, ptr %65, align 8, !tbaa !51
  store i32 %66, ptr %9, align 4, !tbaa !49
  br label %67

67:                                               ; preds = %87, %63
  %68 = load i32, ptr %9, align 4, !tbaa !49
  %69 = icmp ugt i32 %68, 0
  br i1 %69, label %70, label %90

70:                                               ; preds = %67
  call void @llvm.lifetime.start.p0(i64 1, ptr %11) #6
  %71 = load ptr, ptr %7, align 8, !tbaa !73
  %72 = getelementptr inbounds nuw i8, ptr %71, i32 1
  store ptr %72, ptr %7, align 8, !tbaa !73
  %73 = load i8, ptr %71, align 1, !tbaa !32
  store i8 %73, ptr %11, align 1, !tbaa !32
  %74 = load i32, ptr %10, align 4, !tbaa !49
  %75 = load i8, ptr %11, align 1, !tbaa !32
  %76 = load i8, ptr %11, align 1, !tbaa !32
  %77 = load i8, ptr %11, align 1, !tbaa !32
  %78 = load ptr, ptr %6, align 8, !tbaa !73
  %79 = load ptr, ptr %6, align 8, !tbaa !73
  %80 = getelementptr inbounds i8, ptr %79, i64 1
  %81 = load ptr, ptr %6, align 8, !tbaa !73
  %82 = getelementptr inbounds i8, ptr %81, i64 2
  %83 = load ptr, ptr %6, align 8, !tbaa !73
  %84 = getelementptr inbounds i8, ptr %83, i64 3
  call void @rgb_to_cmyk(i32 noundef %74, i8 noundef zeroext %75, i8 noundef zeroext %76, i8 noundef zeroext %77, ptr noundef %78, ptr noundef %80, ptr noundef %82, ptr noundef %84)
  %85 = load ptr, ptr %6, align 8, !tbaa !73
  %86 = getelementptr inbounds i8, ptr %85, i64 4
  store ptr %86, ptr %6, align 8, !tbaa !73
  call void @llvm.lifetime.end.p0(i64 1, ptr %11) #6
  br label %87

87:                                               ; preds = %70
  %88 = load i32, ptr %9, align 4, !tbaa !49
  %89 = add i32 %88, -1
  store i32 %89, ptr %9, align 4, !tbaa !49
  br label %67, !llvm.loop !95

90:                                               ; preds = %67
  br label %124

91:                                               ; preds = %46
  %92 = load ptr, ptr %3, align 8, !tbaa !4
  %93 = getelementptr inbounds nuw %struct.jpeg_compress_struct, ptr %92, i32 0, i32 7
  %94 = load i32, ptr %93, align 8, !tbaa !51
  store i32 %94, ptr %9, align 4, !tbaa !49
  br label %95

95:                                               ; preds = %120, %91
  %96 = load i32, ptr %9, align 4, !tbaa !49
  %97 = icmp ugt i32 %96, 0
  br i1 %97, label %98, label %123

98:                                               ; preds = %95
  call void @llvm.lifetime.start.p0(i64 1, ptr %12) #6
  %99 = load ptr, ptr %8, align 8, !tbaa !73
  %100 = load ptr, ptr %7, align 8, !tbaa !73
  %101 = getelementptr inbounds nuw i8, ptr %100, i32 1
  store ptr %101, ptr %7, align 8, !tbaa !73
  %102 = load i8, ptr %100, align 1, !tbaa !32
  %103 = zext i8 %102 to i32
  %104 = sext i32 %103 to i64
  %105 = getelementptr inbounds i8, ptr %99, i64 %104
  %106 = load i8, ptr %105, align 1, !tbaa !32
  store i8 %106, ptr %12, align 1, !tbaa !32
  %107 = load i32, ptr %10, align 4, !tbaa !49
  %108 = load i8, ptr %12, align 1, !tbaa !32
  %109 = load i8, ptr %12, align 1, !tbaa !32
  %110 = load i8, ptr %12, align 1, !tbaa !32
  %111 = load ptr, ptr %6, align 8, !tbaa !73
  %112 = load ptr, ptr %6, align 8, !tbaa !73
  %113 = getelementptr inbounds i8, ptr %112, i64 1
  %114 = load ptr, ptr %6, align 8, !tbaa !73
  %115 = getelementptr inbounds i8, ptr %114, i64 2
  %116 = load ptr, ptr %6, align 8, !tbaa !73
  %117 = getelementptr inbounds i8, ptr %116, i64 3
  call void @rgb_to_cmyk(i32 noundef %107, i8 noundef zeroext %108, i8 noundef zeroext %109, i8 noundef zeroext %110, ptr noundef %111, ptr noundef %113, ptr noundef %115, ptr noundef %117)
  %118 = load ptr, ptr %6, align 8, !tbaa !73
  %119 = getelementptr inbounds i8, ptr %118, i64 4
  store ptr %119, ptr %6, align 8, !tbaa !73
  call void @llvm.lifetime.end.p0(i64 1, ptr %12) #6
  br label %120

120:                                              ; preds = %98
  %121 = load i32, ptr %9, align 4, !tbaa !49
  %122 = add i32 %121, -1
  store i32 %122, ptr %9, align 4, !tbaa !49
  br label %95, !llvm.loop !96

123:                                              ; preds = %95
  br label %124

124:                                              ; preds = %123, %90
  call void @llvm.lifetime.end.p0(i64 4, ptr %10) #6
  call void @llvm.lifetime.end.p0(i64 4, ptr %9) #6
  call void @llvm.lifetime.end.p0(i64 8, ptr %8) #6
  call void @llvm.lifetime.end.p0(i64 8, ptr %7) #6
  call void @llvm.lifetime.end.p0(i64 8, ptr %6) #6
  call void @llvm.lifetime.end.p0(i64 8, ptr %5) #6
  ret i32 1
}