; Function Attrs: nounwind uwtable
define internal noundef i32 @get_gray_cmyk_row(ptr noundef %0, ptr noundef readonly captures(none) %1) #0 {
  %3 = getelementptr inbounds nuw i8, ptr %1, i64 88
  %4 = load ptr, ptr %3, align 8, !tbaa !59
  %5 = getelementptr inbounds nuw i8, ptr %1, i64 96
  %6 = load i32, ptr %5, align 8, !tbaa !47
  %7 = getelementptr inbounds nuw i8, ptr %1, i64 64
  %8 = load ptr, ptr %7, align 8, !tbaa !54
  %9 = getelementptr inbounds nuw i8, ptr %1, i64 80
  %10 = load i64, ptr %9, align 8, !tbaa !53
  %11 = getelementptr inbounds nuw i8, ptr %1, i64 24
  %12 = load ptr, ptr %11, align 8, !tbaa !43
  %13 = tail call i64 @fread(ptr noundef %8, i64 noundef 1, i64 noundef %10, ptr noundef %12)
  %14 = load i64, ptr %9, align 8, !tbaa !53
  %15 = icmp eq i64 %13, %14
  br i1 %15, label %20, label %16

16:                                               ; preds = %2
  %17 = load ptr, ptr %0, align 8, !tbaa !25
  %18 = getelementptr inbounds nuw i8, ptr %17, i64 40
  store i32 43, ptr %18, align 8, !tbaa !26
  %19 = load ptr, ptr %17, align 8, !tbaa !31
  tail call void %19(ptr noundef nonnull %0) #6
  br label %20

20:                                               ; preds = %16, %2
  %21 = getelementptr inbounds nuw i8, ptr %1, i64 32
  %22 = load ptr, ptr %21, align 8, !tbaa !57
  %23 = load ptr, ptr %22, align 8, !tbaa !63
  %24 = load ptr, ptr %7, align 8, !tbaa !54
  %25 = getelementptr inbounds nuw i8, ptr %0, i64 72
  %26 = load i32, ptr %25, align 8, !tbaa !4
  %notmask = shl nsw i32 -1, %26
  %27 = xor i32 %notmask, %6
  %28 = icmp eq i32 %27, -1
  %29 = getelementptr inbounds nuw i8, ptr %0, i64 48
  %30 = load i32, ptr %29, align 8, !tbaa !45
  %.not4657 = icmp eq i32 %30, 0
  br i1 %28, label %31, label %55

31:                                               ; preds = %20
  br i1 %.not4657, label %.loopexit, label %rgb_to_cmyk.exit.lr.ph

rgb_to_cmyk.exit.lr.ph:                           ; preds = %31
  %32 = sitofp i32 %6 to double
  br label %rgb_to_cmyk.exit

rgb_to_cmyk.exit:                                 ; preds = %rgb_to_cmyk.exit.lr.ph, %rgb_to_cmyk.exit
  %.060 = phi ptr [ %23, %rgb_to_cmyk.exit.lr.ph ], [ %53, %rgb_to_cmyk.exit ]
  %.04059 = phi ptr [ %24, %rgb_to_cmyk.exit.lr.ph ], [ %33, %rgb_to_cmyk.exit ]
  %.04258 = phi i32 [ %30, %rgb_to_cmyk.exit.lr.ph ], [ %54, %rgb_to_cmyk.exit ]
  %33 = getelementptr inbounds nuw i8, ptr %.04059, i64 1
  %34 = load i8, ptr %.04059, align 1, !tbaa !30
  %35 = getelementptr inbounds nuw i8, ptr %.060, i64 1
  %36 = getelementptr inbounds nuw i8, ptr %.060, i64 2
  %37 = getelementptr inbounds nuw i8, ptr %.060, i64 3
  %38 = uitofp i8 %34 to double
  %39 = fdiv double %38, %32
  %40 = fsub double 1.000000e+00, %39
  %41 = fcmp oeq double %40, 1.000000e+00
  %42 = fsub double %40, %40
  %43 = fsub double 1.000000e+00, %40
  %44 = fneg double %42
  %.neg62 = fdiv double %44, %43
  %45 = select i1 %41, double -0.000000e+00, double %.neg62
  %46 = tail call double @llvm.fmuladd.f64(double %45, double %32, double %32)
  %47 = fadd double %46, 5.000000e-01
  %48 = fptoui double %47 to i8
  store i8 %48, ptr %.060, align 1, !tbaa !30
  store i8 %48, ptr %35, align 1, !tbaa !30
  store i8 %48, ptr %36, align 1, !tbaa !30
  %49 = fneg double %40
  %50 = tail call double @llvm.fmuladd.f64(double %49, double %32, double %32)
  %51 = fadd double %50, 5.000000e-01
  %52 = fptoui double %51 to i8
  store i8 %52, ptr %37, align 1, !tbaa !30
  %53 = getelementptr inbounds nuw i8, ptr %.060, i64 4
  %54 = add i32 %.04258, -1
  %.not46 = icmp eq i32 %54, 0
  br i1 %.not46, label %.loopexit, label %rgb_to_cmyk.exit, !llvm.loop !85

55:                                               ; preds = %20
  br i1 %.not4657, label %.loopexit, label %rgb_to_cmyk.exit51.lr.ph

rgb_to_cmyk.exit51.lr.ph:                         ; preds = %55
  %56 = sitofp i32 %6 to double
  br label %rgb_to_cmyk.exit51

rgb_to_cmyk.exit51:                               ; preds = %rgb_to_cmyk.exit51.lr.ph, %rgb_to_cmyk.exit51
  %.156 = phi ptr [ %23, %rgb_to_cmyk.exit51.lr.ph ], [ %80, %rgb_to_cmyk.exit51 ]
  %.14155 = phi ptr [ %24, %rgb_to_cmyk.exit51.lr.ph ], [ %57, %rgb_to_cmyk.exit51 ]
  %.14354 = phi i32 [ %30, %rgb_to_cmyk.exit51.lr.ph ], [ %81, %rgb_to_cmyk.exit51 ]
  %57 = getelementptr inbounds nuw i8, ptr %.14155, i64 1
  %58 = load i8, ptr %.14155, align 1, !tbaa !30
  %59 = zext i8 %58 to i64
  %60 = getelementptr inbounds nuw i8, ptr %4, i64 %59
  %61 = load i8, ptr %60, align 1, !tbaa !30
  %62 = getelementptr inbounds nuw i8, ptr %.156, i64 1
  %63 = getelementptr inbounds nuw i8, ptr %.156, i64 2
  %64 = getelementptr inbounds nuw i8, ptr %.156, i64 3
  %65 = uitofp i8 %61 to double
  %66 = fdiv double %65, %56
  %67 = fsub double 1.000000e+00, %66
  %68 = fcmp oeq double %67, 1.000000e+00
  %69 = fsub double %67, %67
  %70 = fsub double 1.000000e+00, %67
  %71 = fneg double %69
  %.neg = fdiv double %71, %70
  %72 = select i1 %68, double -0.000000e+00, double %.neg
  %73 = tail call double @llvm.fmuladd.f64(double %72, double %56, double %56)
  %74 = fadd double %73, 5.000000e-01
  %75 = fptoui double %74 to i8
  store i8 %75, ptr %.156, align 1, !tbaa !30
  store i8 %75, ptr %62, align 1, !tbaa !30
  store i8 %75, ptr %63, align 1, !tbaa !30
  %76 = fneg double %67
  %77 = tail call double @llvm.fmuladd.f64(double %76, double %56, double %56)
  %78 = fadd double %77, 5.000000e-01
  %79 = fptoui double %78 to i8
  store i8 %79, ptr %64, align 1, !tbaa !30
  %80 = getelementptr inbounds nuw i8, ptr %.156, i64 4
  %81 = add i32 %.14354, -1
  %.not = icmp eq i32 %81, 0
  br i1 %.not, label %.loopexit, label %rgb_to_cmyk.exit51, !llvm.loop !86

.loopexit:                                        ; preds = %rgb_to_cmyk.exit51, %rgb_to_cmyk.exit, %55, %31
  ret i32 1
}